; Function Attrs: mustprogress uwtable
define dso_local void @_ZN6icu_7522Normalizer2DataBuilder13removeMappingEi(ptr noundef nonnull align 8 dereferenceable(860) %this, i32 noundef %c) local_unnamed_addr #1 align 2 {
entry:
  %call = tail call noundef ptr @_ZN6icu_755Norms10createNormEi(ptr noundef nonnull align 8 dereferenceable(424) %this, i32 noundef %c)
  %cmp.not.i = icmp eq ptr %call, null
  br i1 %cmp.not.i, label %_ZN6icu_7522Normalizer2DataBuilder19checkNormForMappingEPNS_4NormEi.exit, label %if.then.i

if.then.i:                                        ; preds = %entry
  %mappingType.i = getelementptr inbounds i8, ptr %call, i64 24
  %0 = load i32, ptr %mappingType.i, align 8
  %cmp2.not.i = icmp eq i32 %0, 0
  br i1 %cmp2.not.i, label %if.end12.i, label %if.then3.i

if.then3.i:                                       ; preds = %if.then.i
  %overrideHandling.i = getelementptr inbounds i8, ptr %this, i64 428
  %1 = load i32, ptr %overrideHandling.i, align 4
  switch i32 %1, label %if.end.i [
    i32 0, label %if.then3.if.then8_crit_edge.i
    i32 2, label %land.lhs.true.i
  ]

if.then3.if.then8_crit_edge.i:                    ; preds = %if.then3.i
  %phase9.phi.trans.insert.i = getelementptr inbounds i8, ptr %this, i64 424
  %.pre.i = load i32, ptr %phase9.phi.trans.insert.i, align 8
  %mappingPhase10.phi.trans.insert.i = getelementptr inbounds i8, ptr %call, i64 20
  %.pre9.i = load i32, ptr %mappingPhase10.phi.trans.insert.i, align 4
  br label %if.then8.i

land.lhs.true.i:                                  ; preds = %if.then3.i
  %mappingPhase.i = getelementptr inbounds i8, ptr %call, i64 20
  %2 = load i32, ptr %mappingPhase.i, align 4
  %phase.i = getelementptr inbounds i8, ptr %this, i64 424
  %3 = load i32, ptr %phase.i, align 8
  %cmp7.i = icmp eq i32 %2, %3
  br i1 %cmp7.i, label %if.then8.i, label %if.end.i

if.then8.i:                                       ; preds = %land.lhs.true.i, %if.then3.if.then8_crit_edge.i
  %4 = phi i32 [ %.pre9.i, %if.then3.if.then8_crit_edge.i ], [ %2, %land.lhs.true.i ]
  %5 = phi i32 [ %.pre.i, %if.then3.if.then8_crit_edge.i ], [ %2, %land.lhs.true.i ]
  %6 = load ptr, ptr @stderr, align 8
  %conv.i = sext i32 %c to i64
  %call.i = tail call i32 (ptr, ptr, ...) @fprintf(ptr noundef %6, ptr noundef nonnull @.str.1, i32 noundef %5, i64 noundef %conv.i, i32 noundef %4) #21
  tail call void @exit(i32 noundef 3) #19
  unreachable

if.end.i:                                         ; preds = %land.lhs.true.i, %if.then3.i
  %7 = load ptr, ptr %call, align 8
  %isnull.i = icmp eq ptr %7, null
  br i1 %isnull.i, label %delete.end.i, label %delete.notnull.i

delete.notnull.i:                                 ; preds = %if.end.i
  %vtable.i = load ptr, ptr %7, align 8
  %vfn.i = getelementptr inbounds i8, ptr %vtable.i, i64 8
  %8 = load ptr, ptr %vfn.i, align 8
  tail call void %8(ptr noundef nonnull align 8 dereferenceable(64) %7) #17
  br label %delete.end.i

delete.end.i:                                     ; preds = %delete.notnull.i, %if.end.i
  store ptr null, ptr %call, align 8
  br label %if.end12.i

if.end12.i:                                       ; preds = %delete.end.i, %if.then.i
  %phase13.i = getelementptr inbounds i8, ptr %this, i64 424
  %9 = load i32, ptr %phase13.i, align 8
  %mappingPhase14.i = getelementptr inbounds i8, ptr %call, i64 20
  store i32 %9, ptr %mappingPhase14.i, align 4
  br label %_ZN6icu_7522Normalizer2DataBuilder19checkNormForMappingEPNS_4NormEi.exit

_ZN6icu_7522Normalizer2DataBuilder19checkNormForMappingEPNS_4NormEi.exit: ; preds = %entry, %if.end12.i
  %mappingType = getelementptr inbounds i8, ptr %call, i64 24
  store i32 1, ptr %mappingType, align 8
  %mappingSet = getelementptr inbounds i8, ptr %this, i64 200
  %call4 = tail call noundef nonnull align 8 dereferenceable(200) ptr @_ZN6icu_7510UnicodeSet3addEi(ptr noundef nonnull align 8 dereferenceable(200) %mappingSet, i32 noundef %c)
  ret void
}